target datalayout = "e-m:e-p270:32:32-p271:32:32-p272:64:64-i64:64-i128:128-f80:128-n8:16:32:64-S128"
target triple = "x86_64-pc-linux-gnu"

%struct._GLFWwindow = type { ptr, i32, i32, i32, i32, i32, i32, i32, ptr, i32, %struct.GLFWvidmode, ptr, ptr, ptr, i32, i32, i32, i32, i32, i32, i32, i32, i32, i32, [8 x i8], [349 x i8], double, double, i32, %struct._GLFWcontext, %struct.anon.6, %struct._GLFWwindowWayland, %struct._GLFWwindowX11, %struct._GLFWwindowNull }
%struct.GLFWvidmode = type { i32, i32, i32, i32, i32, i32 }
%struct._GLFWcontext = type { i32, i32, i32, i32, i32, i32, i32, i32, i32, i32, i32, ptr, ptr, ptr, ptr, ptr, ptr, ptr, ptr, ptr, %struct.anon.4, %struct.anon.5, %struct._GLFWcontextGLX }
%struct.anon.4 = type { ptr, ptr, ptr, ptr }
%struct.anon.5 = type { ptr, i32, i32, ptr }
%struct._GLFWcontextGLX = type { ptr, i64 }
%struct.anon.6 = type { ptr, ptr, ptr, ptr, ptr, ptr, ptr, ptr, ptr, ptr, ptr, ptr, ptr, ptr, ptr, ptr, ptr }
%struct._GLFWwindowWayland = type { i32, i32, i32, i32, i32, i32, i32, i32, i32, i32, i32, ptr, ptr, %struct.anon.7, %struct.anon.8, %struct.anon.9, %struct.anon.10, ptr, double, double, ptr, i32, ptr, i64, i64, ptr, i32, ptr, ptr, ptr, ptr, ptr, ptr, %struct.anon.11 }
%struct.anon.7 = type { ptr }
%struct.anon.8 = type { i32, i32, i32, i32, i32, i32 }
%struct.anon.9 = type { ptr, ptr, ptr, i32 }
%struct.anon.10 = type { ptr }
%struct.anon.11 = type { i32, ptr, %struct._GLFWfallbackEdgeWayland, %struct._GLFWfallbackEdgeWayland, %struct._GLFWfallbackEdgeWayland, %struct._GLFWfallbackEdgeWayland, ptr }
%struct._GLFWfallbackEdgeWayland = type { ptr, ptr, ptr }
%struct._GLFWwindowX11 = type { i64, i64, i64, ptr, i32, i32, i32, i32, i32, i32, i32, i32, i32, i32, i32, i32, [256 x i64] }
%struct._GLFWwindowNull = type { i32, i32, i32, i32, i32, i32, i32, i32, i32, i32, i32, float }
%struct._GLFWmonitor = type { [128 x i8], ptr, i32, i32, ptr, ptr, i32, %struct.GLFWvidmode, %struct.GLFWgammaramp, %struct.GLFWgammaramp, %struct._GLFWmonitorWayland, %struct._GLFWmonitorX11, %struct._GLFWmonitorNull }
%struct.GLFWgammaramp = type { ptr, ptr, ptr, i32 }
%struct._GLFWmonitorWayland = type { ptr, i32, i32, i32, i32, i32 }
%struct._GLFWmonitorX11 = type { i64, i64, i64, i32 }
%struct._GLFWmonitorNull = type { %struct.GLFWgammaramp }

; Function Attrs: nounwind uwtable
define internal void @fitToMonitor(ptr noundef %0) #0 {
  %2 = alloca ptr, align 8
  %3 = alloca %struct.GLFWvidmode, align 4
  store ptr %0, ptr %2, align 8, !tbaa !3
  call void @llvm.lifetime.start.p0(i64 24, ptr %3) #3
  %4 = load ptr, ptr %2, align 8, !tbaa !3
  %5 = getelementptr inbounds nuw %struct._GLFWwindow, ptr %4, i32 0, i32 11
  %6 = load ptr, ptr %5, align 8, !tbaa !25
  %7 = call i32 @_glfwGetVideoModeNull(ptr noundef %6, ptr noundef %3)
  %8 = load ptr, ptr %2, align 8, !tbaa !3
  %9 = getelementptr inbounds nuw %struct._GLFWwindow, ptr %8, i32 0, i32 11
  %10 = load ptr, ptr %9, align 8, !tbaa !25
  %11 = load ptr, ptr %2, align 8, !tbaa !3
  %12 = getelementptr inbounds nuw %struct._GLFWwindow, ptr %11, i32 0, i32 33
  %13 = getelementptr inbounds nuw %struct._GLFWwindowNull, ptr %12, i32 0, i32 0
  %14 = load ptr, ptr %2, align 8, !tbaa !3
  %15 = getelementptr inbounds nuw %struct._GLFWwindow, ptr %14, i32 0, i32 33
  %16 = getelementptr inbounds nuw %struct._GLFWwindowNull, ptr %15, i32 0, i32 1
  call void @_glfwGetMonitorPosNull(ptr noundef %10, ptr noundef %13, ptr noundef %16)
  %17 = getelementptr inbounds nuw %struct.GLFWvidmode, ptr %3, i32 0, i32 0
  %18 = load i32, ptr %17, align 4, !tbaa !174
  %19 = load ptr, ptr %2, align 8, !tbaa !3
  %20 = getelementptr inbounds nuw %struct._GLFWwindow, ptr %19, i32 0, i32 33
  %21 = getelementptr inbounds nuw %struct._GLFWwindowNull, ptr %20, i32 0, i32 2
  store i32 %18, ptr %21, align 8, !tbaa !74
  %22 = getelementptr inbounds nuw %struct.GLFWvidmode, ptr %3, i32 0, i32 1
  %23 = load i32, ptr %22, align 4, !tbaa !175
  %24 = load ptr, ptr %2, align 8, !tbaa !3
  %25 = getelementptr inbounds nuw %struct._GLFWwindow, ptr %24, i32 0, i32 33
  %26 = getelementptr inbounds nuw %struct._GLFWwindowNull, ptr %25, i32 0, i32 3
  store i32 %23, ptr %26, align 4, !tbaa !76
  call void @llvm.lifetime.end.p0(i64 24, ptr %3) #3
  ret void
}

; Function Attrs: nounwind uwtable
define internal void @acquireMonitor(ptr noundef %0) #0 {
  %2 = alloca ptr, align 8
  store ptr %0, ptr %2, align 8, !tbaa !3
  %3 = load ptr, ptr %2, align 8, !tbaa !3
  %4 = getelementptr inbounds nuw %struct._GLFWwindow, ptr %3, i32 0, i32 11
  %5 = load ptr, ptr %4, align 8, !tbaa !25
  %6 = load ptr, ptr %2, align 8, !tbaa !3
  call void @_glfwInputMonitorWindow(ptr noundef %5, ptr noundef %6)
  ret void
}

; Function Attrs: nounwind uwtable
define internal void @releaseMonitor(ptr noundef %0) #0 {
  %2 = alloca ptr, align 8
  store ptr %0, ptr %2, align 8, !tbaa !3
  %3 = load ptr, ptr %2, align 8, !tbaa !3
  %4 = getelementptr inbounds nuw %struct._GLFWwindow, ptr %3, i32 0, i32 11
  %5 = load ptr, ptr %4, align 8, !tbaa !25
  %6 = getelementptr inbounds nuw %struct._GLFWmonitor, ptr %5, i32 0, i32 4
  %7 = load ptr, ptr %6, align 8, !tbaa !161
  %8 = load ptr, ptr %2, align 8, !tbaa !3
  %9 = icmp ne ptr %7, %8
  br i1 %9, label %10, label %11

10:                                               ; preds = %1
  br label %15

11:                                               ; preds = %1
  %12 = load ptr, ptr %2, align 8, !tbaa !3
  %13 = getelementptr inbounds nuw %struct._GLFWwindow, ptr %12, i32 0, i32 11
  %14 = load ptr, ptr %13, align 8, !tbaa !25
  call void @_glfwInputMonitorWindow(ptr noundef %14, ptr noundef null)
  br label %15

15:                                               ; preds = %11, %10
  ret void
}

; Function Attrs: nounwind uwtable
define hidden void @_glfwSetWindowSizeNull(ptr noundef %0, i32 noundef %1, i32 noundef %2) #0 {
  %4 = alloca ptr, align 8
  %5 = alloca i32, align 4
  %6 = alloca i32, align 4
  store ptr %0, ptr %4, align 8, !tbaa !3
  store i32 %1, ptr %5, align 4, !tbaa !88
  store i32 %2, ptr %6, align 4, !tbaa !88
  %7 = load ptr, ptr %4, align 8, !tbaa !3
  %8 = getelementptr inbounds nuw %struct._GLFWwindow, ptr %7, i32 0, i32 11
  %9 = load ptr, ptr %8, align 8, !tbaa !25
  %10 = icmp ne ptr %9, null
  br i1 %10, label %11, label %12

11:                                               ; preds = %3
  br label %42

12:                                               ; preds = %3
  %13 = load ptr, ptr %4, align 8, !tbaa !3
  %14 = getelementptr inbounds nuw %struct._GLFWwindow, ptr %13, i32 0, i32 33
  %15 = getelementptr inbounds nuw %struct._GLFWwindowNull, ptr %14, i32 0, i32 2
  %16 = load i32, ptr %15, align 8, !tbaa !74
  %17 = load i32, ptr %5, align 4, !tbaa !88
  %18 = icmp ne i32 %16, %17
  br i1 %18, label %26, label %19

19:                                               ; preds = %12
  %20 = load ptr, ptr %4, align 8, !tbaa !3
  %21 = getelementptr inbounds nuw %struct._GLFWwindow, ptr %20, i32 0, i32 33
  %22 = getelementptr inbounds nuw %struct._GLFWwindowNull, ptr %21, i32 0, i32 3
  %23 = load i32, ptr %22, align 4, !tbaa !76
  %24 = load i32, ptr %6, align 4, !tbaa !88
  %25 = icmp ne i32 %23, %24
  br i1 %25, label %26, label %42

26:                                               ; preds = %19, %12
  %27 = load i32, ptr %5, align 4, !tbaa !88
  %28 = load ptr, ptr %4, align 8, !tbaa !3
  %29 = getelementptr inbounds nuw %struct._GLFWwindow, ptr %28, i32 0, i32 33
  %30 = getelementptr inbounds nuw %struct._GLFWwindowNull, ptr %29, i32 0, i32 2
  store i32 %27, ptr %30, align 8, !tbaa !74
  %31 = load i32, ptr %6, align 4, !tbaa !88
  %32 = load ptr, ptr %4, align 8, !tbaa !3
  %33 = getelementptr inbounds nuw %struct._GLFWwindow, ptr %32, i32 0, i32 33
  %34 = getelementptr inbounds nuw %struct._GLFWwindowNull, ptr %33, i32 0, i32 3
  store i32 %31, ptr %34, align 4, !tbaa !76
  %35 = load ptr, ptr %4, align 8, !tbaa !3
  %36 = load i32, ptr %5, align 4, !tbaa !88
  %37 = load i32, ptr %6, align 4, !tbaa !88
  call void @_glfwInputFramebufferSize(ptr noundef %35, i32 noundef %36, i32 noundef %37)
  %38 = load ptr, ptr %4, align 8, !tbaa !3
  call void @_glfwInputWindowDamage(ptr noundef %38)
  %39 = load ptr, ptr %4, align 8, !tbaa !3
  %40 = load i32, ptr %5, align 4, !tbaa !88
  %41 = load i32, ptr %6, align 4, !tbaa !88
  call void @_glfwInputWindowSize(ptr noundef %39, i32 noundef %40, i32 noundef %41)
  br label %42

42:                                               ; preds = %11, %26, %19
  ret void
}

; Function Attrs: nounwind uwtable
define hidden void @_glfwSetWindowPosNull(ptr noundef %0, i32 noundef %1, i32 noundef %2) #0 {
  %4 = alloca ptr, align 8
  %5 = alloca i32, align 4
  %6 = alloca i32, align 4
  store ptr %0, ptr %4, align 8, !tbaa !3
  store i32 %1, ptr %5, align 4, !tbaa !88
  store i32 %2, ptr %6, align 4, !tbaa !88
  %7 = load ptr, ptr %4, align 8, !tbaa !3
  %8 = getelementptr inbounds nuw %struct._GLFWwindow, ptr %7, i32 0, i32 11
  %9 = load ptr, ptr %8, align 8, !tbaa !25
  %10 = icmp ne ptr %9, null
  br i1 %10, label %11, label %12

11:                                               ; preds = %3
  br label %38

12:                                               ; preds = %3
  %13 = load ptr, ptr %4, align 8, !tbaa !3
  %14 = getelementptr inbounds nuw %struct._GLFWwindow, ptr %13, i32 0, i32 33
  %15 = getelementptr inbounds nuw %struct._GLFWwindowNull, ptr %14, i32 0, i32 0
  %16 = load i32, ptr %15, align 8, !tbaa !71
  %17 = load i32, ptr %5, align 4, !tbaa !88
  %18 = icmp ne i32 %16, %17
  br i1 %18, label %26, label %19

19:                                               ; preds = %12
  %20 = load ptr, ptr %4, align 8, !tbaa !3
  %21 = getelementptr inbounds nuw %struct._GLFWwindow, ptr %20, i32 0, i32 33
  %22 = getelementptr inbounds nuw %struct._GLFWwindowNull, ptr %21, i32 0, i32 1
  %23 = load i32, ptr %22, align 4, !tbaa !72
  %24 = load i32, ptr %6, align 4, !tbaa !88
  %25 = icmp ne i32 %23, %24
  br i1 %25, label %26, label %38

26:                                               ; preds = %19, %12
  %27 = load i32, ptr %5, align 4, !tbaa !88
  %28 = load ptr, ptr %4, align 8, !tbaa !3
  %29 = getelementptr inbounds nuw %struct._GLFWwindow, ptr %28, i32 0, i32 33
  %30 = getelementptr inbounds nuw %struct._GLFWwindowNull, ptr %29, i32 0, i32 0
  store i32 %27, ptr %30, align 8, !tbaa !71
  %31 = load i32, ptr %6, align 4, !tbaa !88
  %32 = load ptr, ptr %4, align 8, !tbaa !3
  %33 = getelementptr inbounds nuw %struct._GLFWwindow, ptr %32, i32 0, i32 33
  %34 = getelementptr inbounds nuw %struct._GLFWwindowNull, ptr %33, i32 0, i32 1
  store i32 %31, ptr %34, align 4, !tbaa !72
  %35 = load ptr, ptr %4, align 8, !tbaa !3
  %36 = load i32, ptr %5, align 4, !tbaa !88
  %37 = load i32, ptr %6, align 4, !tbaa !88
  call void @_glfwInputWindowPos(ptr noundef %35, i32 noundef %36, i32 noundef %37)
  br label %38

38:                                               ; preds = %11, %26, %19
  ret void
}

; Function Attrs: nounwind uwtable
define hidden void @_glfwSetWindowMonitorNull(ptr noundef %0, ptr noundef %1, i32 noundef %2, i32 noundef %3, i32 noundef %4, i32 noundef %5, i32 noundef %6) #0 {
  %8 = alloca ptr, align 8
  %9 = alloca ptr, align 8
  %10 = alloca i32, align 4
  %11 = alloca i32, align 4
  %12 = alloca i32, align 4
  %13 = alloca i32, align 4
  %14 = alloca i32, align 4
  store ptr %0, ptr %8, align 8, !tbaa !3
  store ptr %1, ptr %9, align 8, !tbaa !173
  store i32 %2, ptr %10, align 4, !tbaa !88
  store i32 %3, ptr %11, align 4, !tbaa !88
  store i32 %4, ptr %12, align 4, !tbaa !88
  store i32 %5, ptr %13, align 4, !tbaa !88
  store i32 %6, ptr %14, align 4, !tbaa !88
  %15 = load ptr, ptr %8, align 8, !tbaa !3
  %16 = getelementptr inbounds nuw %struct._GLFWwindow, ptr %15, i32 0, i32 11
  %17 = load ptr, ptr %16, align 8, !tbaa !25
  %18 = load ptr, ptr %9, align 8, !tbaa !173
  %19 = icmp eq ptr %17, %18
  br i1 %19, label %20, label %31

20:                                               ; preds = %7
  %21 = load ptr, ptr %9, align 8, !tbaa !173
  %22 = icmp ne ptr %21, null
  br i1 %22, label %30, label %23

23:                                               ; preds = %20
  %24 = load ptr, ptr %8, align 8, !tbaa !3
  %25 = load i32, ptr %10, align 4, !tbaa !88
  %26 = load i32, ptr %11, align 4, !tbaa !88
  call void @_glfwSetWindowPosNull(ptr noundef %24, i32 noundef %25, i32 noundef %26)
  %27 = load ptr, ptr %8, align 8, !tbaa !3
  %28 = load i32, ptr %12, align 4, !tbaa !88
  %29 = load i32, ptr %13, align 4, !tbaa !88
  call void @_glfwSetWindowSizeNull(ptr noundef %27, i32 noundef %28, i32 noundef %29)
  br label %30

30:                                               ; preds = %23, %20
  br label %58

31:                                               ; preds = %7
  %32 = load ptr, ptr %8, align 8, !tbaa !3
  %33 = getelementptr inbounds nuw %struct._GLFWwindow, ptr %32, i32 0, i32 11
  %34 = load ptr, ptr %33, align 8, !tbaa !25
  %35 = icmp ne ptr %34, null
  br i1 %35, label %36, label %38

36:                                               ; preds = %31
  %37 = load ptr, ptr %8, align 8, !tbaa !3
  call void @releaseMonitor(ptr noundef %37)
  br label %38

38:                                               ; preds = %36, %31
  %39 = load ptr, ptr %8, align 8, !tbaa !3
  %40 = load ptr, ptr %9, align 8, !tbaa !173
  call void @_glfwInputWindowMonitor(ptr noundef %39, ptr noundef %40)
  %41 = load ptr, ptr %8, align 8, !tbaa !3
  %42 = getelementptr inbounds nuw %struct._GLFWwindow, ptr %41, i32 0, i32 11
  %43 = load ptr, ptr %42, align 8, !tbaa !25
  %44 = icmp ne ptr %43, null
  br i1 %44, label %45, label %51

45:                                               ; preds = %38
  %46 = load ptr, ptr %8, align 8, !tbaa !3
  %47 = getelementptr inbounds nuw %struct._GLFWwindow, ptr %46, i32 0, i32 33
  %48 = getelementptr inbounds nuw %struct._GLFWwindowNull, ptr %47, i32 0, i32 4
  store i32 1, ptr %48, align 8, !tbaa !77
  %49 = load ptr, ptr %8, align 8, !tbaa !3
  call void @acquireMonitor(ptr noundef %49)
  %50 = load ptr, ptr %8, align 8, !tbaa !3
  call void @fitToMonitor(ptr noundef %50)
  br label %58

51:                                               ; preds = %38
  %52 = load ptr, ptr %8, align 8, !tbaa !3
  %53 = load i32, ptr %10, align 4, !tbaa !88
  %54 = load i32, ptr %11, align 4, !tbaa !88
  call void @_glfwSetWindowPosNull(ptr noundef %52, i32 noundef %53, i32 noundef %54)
  %55 = load ptr, ptr %8, align 8, !tbaa !3
  %56 = load i32, ptr %12, align 4, !tbaa !88
  %57 = load i32, ptr %13, align 4, !tbaa !88
  call void @_glfwSetWindowSizeNull(ptr noundef %55, i32 noundef %56, i32 noundef %57)
  br label %58

58:                                               ; preds = %30, %51, %45
  ret void
}