; Function Attrs: nounwind uwtable
define hidden void @_glfwSetWindowMonitorNull(ptr noundef %0, ptr noundef %1, i32 noundef %2, i32 noundef %3, i32 noundef %4, i32 noundef %5, i32 noundef %6) local_unnamed_addr #0 {
  %8 = alloca %struct.GLFWvidmode, align 4
  %9 = getelementptr inbounds nuw i8, ptr %0, i64 80
  %10 = load ptr, ptr %9, align 8, !tbaa !3
  %11 = icmp eq ptr %10, %1
  br i1 %11, label %12, label %28

12:                                               ; preds = %7
  %.not24 = icmp eq ptr %1, null
  br i1 %.not24, label %13, label %_glfwSetWindowSizeNull.exit

13:                                               ; preds = %12
  %14 = getelementptr inbounds nuw i8, ptr %0, i64 3368
  %15 = load i32, ptr %14, align 8, !tbaa !58
  %.not11.i = icmp eq i32 %15, %2
  br i1 %.not11.i, label %16, label %_glfwSetWindowPosNull.exit

16:                                               ; preds = %13
  %17 = getelementptr inbounds nuw i8, ptr %0, i64 3372
  %18 = load i32, ptr %17, align 4, !tbaa !59
  %.not12.i = icmp eq i32 %18, %3
  br i1 %.not12.i, label %_glfwSetWindowPosNull.exit.thread, label %_glfwSetWindowPosNull.exit

_glfwSetWindowPosNull.exit:                       ; preds = %13, %16
  store i32 %2, ptr %14, align 8, !tbaa !58
  %19 = getelementptr inbounds nuw i8, ptr %0, i64 3372
  store i32 %3, ptr %19, align 4, !tbaa !59
  tail call void @_glfwInputWindowPos(ptr noundef nonnull %0, i32 noundef %2, i32 noundef %3) #11
  %.pre35 = load ptr, ptr %9, align 8, !tbaa !3
  %20 = icmp eq ptr %.pre35, null
  br i1 %20, label %_glfwSetWindowPosNull.exit.thread, label %_glfwSetWindowSizeNull.exit

_glfwSetWindowPosNull.exit.thread:                ; preds = %16, %_glfwSetWindowPosNull.exit
  %21 = getelementptr inbounds nuw i8, ptr %0, i64 3376
  %22 = load i32, ptr %21, align 8, !tbaa !62
  %.not15.i = icmp eq i32 %22, %4
  br i1 %.not15.i, label %23, label %26

23:                                               ; preds = %_glfwSetWindowPosNull.exit.thread
  %24 = getelementptr inbounds nuw i8, ptr %0, i64 3380
  %25 = load i32, ptr %24, align 4, !tbaa !63
  %.not16.i = icmp eq i32 %25, %5
  br i1 %.not16.i, label %_glfwSetWindowSizeNull.exit, label %26

26:                                               ; preds = %23, %_glfwSetWindowPosNull.exit.thread
  store i32 %4, ptr %21, align 8, !tbaa !62
  %27 = getelementptr inbounds nuw i8, ptr %0, i64 3380
  store i32 %5, ptr %27, align 4, !tbaa !63
  tail call void @_glfwInputFramebufferSize(ptr noundef nonnull %0, i32 noundef %4, i32 noundef %5) #11
  tail call void @_glfwInputWindowDamage(ptr noundef nonnull %0) #11
  tail call void @_glfwInputWindowSize(ptr noundef nonnull %0, i32 noundef %4, i32 noundef %5) #11
  br label %_glfwSetWindowSizeNull.exit

28:                                               ; preds = %7
  %.not = icmp eq ptr %10, null
  br i1 %.not, label %releaseMonitor.exit, label %29

29:                                               ; preds = %28
  %30 = getelementptr inbounds nuw i8, ptr %10, i64 144
  %31 = load ptr, ptr %30, align 8, !tbaa !154
  %.not.i26 = icmp eq ptr %31, %0
  br i1 %.not.i26, label %32, label %releaseMonitor.exit

32:                                               ; preds = %29
  tail call void @_glfwInputMonitorWindow(ptr noundef nonnull %10, ptr noundef null) #11
  br label %releaseMonitor.exit

releaseMonitor.exit:                              ; preds = %32, %29, %28
  tail call void @_glfwInputWindowMonitor(ptr noundef nonnull %0, ptr noundef %1) #11
  %33 = load ptr, ptr %9, align 8, !tbaa !3
  %.not23 = icmp eq ptr %33, null
  br i1 %.not23, label %46, label %34

34:                                               ; preds = %releaseMonitor.exit
  %35 = getelementptr inbounds nuw i8, ptr %0, i64 3384
  store i32 1, ptr %35, align 8, !tbaa !65
  tail call void @_glfwInputMonitorWindow(ptr noundef nonnull %33, ptr noundef nonnull %0) #11
  call void @llvm.lifetime.start.p0(i64 24, ptr nonnull %8) #11
  %36 = load ptr, ptr %9, align 8, !tbaa !3
  %37 = call i32 @_glfwGetVideoModeNull(ptr noundef %36, ptr noundef nonnull %8) #11
  %38 = load ptr, ptr %9, align 8, !tbaa !3
  %39 = getelementptr inbounds nuw i8, ptr %0, i64 3368
  %40 = getelementptr inbounds nuw i8, ptr %0, i64 3372
  call void @_glfwGetMonitorPosNull(ptr noundef %38, ptr noundef nonnull %39, ptr noundef nonnull %40) #11
  %41 = load i32, ptr %8, align 4, !tbaa !50
  %42 = getelementptr inbounds nuw i8, ptr %0, i64 3376
  store i32 %41, ptr %42, align 8, !tbaa !62
  %43 = getelementptr inbounds nuw i8, ptr %8, i64 4
  %44 = load i32, ptr %43, align 4, !tbaa !51
  %45 = getelementptr inbounds nuw i8, ptr %0, i64 3380
  store i32 %44, ptr %45, align 4, !tbaa !63
  call void @llvm.lifetime.end.p0(i64 24, ptr nonnull %8) #11
  br label %_glfwSetWindowSizeNull.exit

46:                                               ; preds = %releaseMonitor.exit
  %47 = getelementptr inbounds nuw i8, ptr %0, i64 3368
  %48 = load i32, ptr %47, align 8, !tbaa !58
  %.not11.i28 = icmp eq i32 %48, %2
  br i1 %.not11.i28, label %49, label %_glfwSetWindowPosNull.exit30

49:                                               ; preds = %46
  %50 = getelementptr inbounds nuw i8, ptr %0, i64 3372
  %51 = load i32, ptr %50, align 4, !tbaa !59
  %.not12.i29 = icmp eq i32 %51, %3
  br i1 %.not12.i29, label %_glfwSetWindowPosNull.exit30.thread, label %_glfwSetWindowPosNull.exit30

_glfwSetWindowPosNull.exit30:                     ; preds = %46, %49
  store i32 %2, ptr %47, align 8, !tbaa !58
  %52 = getelementptr inbounds nuw i8, ptr %0, i64 3372
  store i32 %3, ptr %52, align 4, !tbaa !59
  tail call void @_glfwInputWindowPos(ptr noundef nonnull %0, i32 noundef %2, i32 noundef %3) #11
  %.pre = load ptr, ptr %9, align 8, !tbaa !3
  %53 = icmp eq ptr %.pre, null
  br i1 %53, label %_glfwSetWindowPosNull.exit30.thread, label %_glfwSetWindowSizeNull.exit

_glfwSetWindowPosNull.exit30.thread:              ; preds = %49, %_glfwSetWindowPosNull.exit30
  %54 = getelementptr inbounds nuw i8, ptr %0, i64 3376
  %55 = load i32, ptr %54, align 8, !tbaa !62
  %.not15.i32 = icmp eq i32 %55, %4
  br i1 %.not15.i32, label %56, label %59

56:                                               ; preds = %_glfwSetWindowPosNull.exit30.thread
  %57 = getelementptr inbounds nuw i8, ptr %0, i64 3380
  %58 = load i32, ptr %57, align 4, !tbaa !63
  %.not16.i33 = icmp eq i32 %58, %5
  br i1 %.not16.i33, label %_glfwSetWindowSizeNull.exit, label %59

59:                                               ; preds = %56, %_glfwSetWindowPosNull.exit30.thread
  store i32 %4, ptr %54, align 8, !tbaa !62
  %60 = getelementptr inbounds nuw i8, ptr %0, i64 3380
  store i32 %5, ptr %60, align 4, !tbaa !63
  tail call void @_glfwInputFramebufferSize(ptr noundef nonnull %0, i32 noundef %4, i32 noundef %5) #11
  tail call void @_glfwInputWindowDamage(ptr noundef nonnull %0) #11
  tail call void @_glfwInputWindowSize(ptr noundef nonnull %0, i32 noundef %4, i32 noundef %5) #11
  br label %_glfwSetWindowSizeNull.exit

_glfwSetWindowSizeNull.exit:                      ; preds = %59, %56, %_glfwSetWindowPosNull.exit30, %26, %23, %_glfwSetWindowPosNull.exit, %12, %34
  ret void
}